target datalayout = "e-m:e-p270:32:32-p271:32:32-p272:64:64-i64:64-i128:128-f80:128-n8:16:32:64-S128"
target triple = "x86_64-pc-linux-gnu"

%struct.hwloc_topology = type { i32, i32, i32, ptr, ptr, i64, [20 x i32], [20 x i32], i64, i64, i32, ptr, i64, ptr, i64, [6 x %struct.hwloc_special_level_s], ptr, ptr, %struct.hwloc_binding_hooks, %struct.hwloc_topology_support, %struct.hwloc_infos_s, ptr, ptr, i32, ptr, ptr, i32, i32, ptr, i32, i32, ptr, i32, i32, i32, [5 x float], i32, ptr, ptr, i32, i32, ptr, i32, %struct.hwloc_numanode_attr_s, i32, i32, ptr, i64, i32, ptr, ptr, ptr }
%struct.hwloc_special_level_s = type { i32, ptr, ptr, ptr }
%struct.hwloc_binding_hooks = type { ptr, ptr, ptr, ptr, ptr, ptr, ptr, ptr, ptr, ptr, ptr, ptr, ptr, ptr, ptr, ptr, ptr, ptr, ptr, ptr, ptr, ptr, ptr, ptr }
%struct.hwloc_topology_support = type { ptr, ptr, ptr, ptr }
%struct.hwloc_infos_s = type { ptr, i32, i32 }
%struct.hwloc_numanode_attr_s = type { i64, i32, ptr }

; Function Attrs: nounwind uwtable
define internal i32 @hwloc_get_membind_by_nodeset(ptr noundef %0, ptr noundef %1, ptr noundef %2, i32 noundef %3) #0 {
  %5 = alloca i32, align 4
  %6 = alloca ptr, align 8
  %7 = alloca ptr, align 8
  %8 = alloca ptr, align 8
  %9 = alloca i32, align 4
  %10 = alloca i32, align 4
  %11 = alloca i32, align 4
  store ptr %0, ptr %6, align 8, !tbaa !3
  store ptr %1, ptr %7, align 8, !tbaa !8
  store ptr %2, ptr %8, align 8, !tbaa !48
  store i32 %3, ptr %9, align 4, !tbaa !10
  %12 = load i32, ptr %9, align 4, !tbaa !10
  %13 = and i32 %12, -64
  %14 = icmp ne i32 %13, 0
  br i1 %14, label %15, label %17

15:                                               ; preds = %4
  %16 = call ptr @__errno_location() #8
  store i32 22, ptr %16, align 4, !tbaa !10
  store i32 -1, ptr %5, align 4
  br label %107

17:                                               ; preds = %4
  %18 = load i32, ptr %9, align 4, !tbaa !10
  %19 = and i32 %18, 1
  %20 = icmp ne i32 %19, 0
  br i1 %20, label %21, label %38

21:                                               ; preds = %17
  %22 = load ptr, ptr %6, align 8, !tbaa !3
  %23 = getelementptr inbounds nuw %struct.hwloc_topology, ptr %22, i32 0, i32 18
  %24 = getelementptr inbounds nuw %struct.hwloc_binding_hooks, ptr %23, i32 0, i32 12
  %25 = load ptr, ptr %24, align 8, !tbaa !49
  %26 = icmp ne ptr %25, null
  br i1 %26, label %27, label %37

27:                                               ; preds = %21
  %28 = load ptr, ptr %6, align 8, !tbaa !3
  %29 = getelementptr inbounds nuw %struct.hwloc_topology, ptr %28, i32 0, i32 18
  %30 = getelementptr inbounds nuw %struct.hwloc_binding_hooks, ptr %29, i32 0, i32 12
  %31 = load ptr, ptr %30, align 8, !tbaa !49
  %32 = load ptr, ptr %6, align 8, !tbaa !3
  %33 = load ptr, ptr %7, align 8, !tbaa !8
  %34 = load ptr, ptr %8, align 8, !tbaa !48
  %35 = load i32, ptr %9, align 4, !tbaa !10
  %36 = call i32 %31(ptr noundef %32, ptr noundef %33, ptr noundef %34, i32 noundef %35)
  store i32 %36, ptr %5, align 4
  br label %107

37:                                               ; preds = %21
  br label %105

38:                                               ; preds = %17
  %39 = load i32, ptr %9, align 4, !tbaa !10
  %40 = and i32 %39, 2
  %41 = icmp ne i32 %40, 0
  br i1 %41, label %42, label %59

42:                                               ; preds = %38
  %43 = load ptr, ptr %6, align 8, !tbaa !3
  %44 = getelementptr inbounds nuw %struct.hwloc_topology, ptr %43, i32 0, i32 18
  %45 = getelementptr inbounds nuw %struct.hwloc_binding_hooks, ptr %44, i32 0, i32 14
  %46 = load ptr, ptr %45, align 8, !tbaa !50
  %47 = icmp ne ptr %46, null
  br i1 %47, label %48, label %58

48:                                               ; preds = %42
  %49 = load ptr, ptr %6, align 8, !tbaa !3
  %50 = getelementptr inbounds nuw %struct.hwloc_topology, ptr %49, i32 0, i32 18
  %51 = getelementptr inbounds nuw %struct.hwloc_binding_hooks, ptr %50, i32 0, i32 14
  %52 = load ptr, ptr %51, align 8, !tbaa !50
  %53 = load ptr, ptr %6, align 8, !tbaa !3
  %54 = load ptr, ptr %7, align 8, !tbaa !8
  %55 = load ptr, ptr %8, align 8, !tbaa !48
  %56 = load i32, ptr %9, align 4, !tbaa !10
  %57 = call i32 %52(ptr noundef %53, ptr noundef %54, ptr noundef %55, i32 noundef %56)
  store i32 %57, ptr %5, align 4
  br label %107

58:                                               ; preds = %42
  br label %104

59:                                               ; preds = %38
  %60 = load ptr, ptr %6, align 8, !tbaa !3
  %61 = getelementptr inbounds nuw %struct.hwloc_topology, ptr %60, i32 0, i32 18
  %62 = getelementptr inbounds nuw %struct.hwloc_binding_hooks, ptr %61, i32 0, i32 12
  %63 = load ptr, ptr %62, align 8, !tbaa !49
  %64 = icmp ne ptr %63, null
  br i1 %64, label %65, label %87

65:                                               ; preds = %59
  call void @llvm.lifetime.start.p0(i64 4, ptr %10) #9
  %66 = load ptr, ptr %6, align 8, !tbaa !3
  %67 = getelementptr inbounds nuw %struct.hwloc_topology, ptr %66, i32 0, i32 18
  %68 = getelementptr inbounds nuw %struct.hwloc_binding_hooks, ptr %67, i32 0, i32 12
  %69 = load ptr, ptr %68, align 8, !tbaa !49
  %70 = load ptr, ptr %6, align 8, !tbaa !3
  %71 = load ptr, ptr %7, align 8, !tbaa !8
  %72 = load ptr, ptr %8, align 8, !tbaa !48
  %73 = load i32, ptr %9, align 4, !tbaa !10
  %74 = call i32 %69(ptr noundef %70, ptr noundef %71, ptr noundef %72, i32 noundef %73)
  store i32 %74, ptr %10, align 4, !tbaa !10
  %75 = load i32, ptr %10, align 4, !tbaa !10
  %76 = icmp sge i32 %75, 0
  br i1 %76, label %81, label %77

77:                                               ; preds = %65
  %78 = call ptr @__errno_location() #8
  %79 = load i32, ptr %78, align 4, !tbaa !10
  %80 = icmp ne i32 %79, 38
  br i1 %80, label %81, label %83

81:                                               ; preds = %77, %65
  %82 = load i32, ptr %10, align 4, !tbaa !10
  store i32 %82, ptr %5, align 4
  store i32 1, ptr %11, align 4
  br label %84

83:                                               ; preds = %77
  store i32 0, ptr %11, align 4
  br label %84

84:                                               ; preds = %83, %81
  call void @llvm.lifetime.end.p0(i64 4, ptr %10) #9
  %85 = load i32, ptr %11, align 4
  switch i32 %85, label %109 [
    i32 0, label %86
    i32 1, label %107
  ]

86:                                               ; preds = %84
  br label %87

87:                                               ; preds = %86, %59
  %88 = load ptr, ptr %6, align 8, !tbaa !3
  %89 = getelementptr inbounds nuw %struct.hwloc_topology, ptr %88, i32 0, i32 18
  %90 = getelementptr inbounds nuw %struct.hwloc_binding_hooks, ptr %89, i32 0, i32 14
  %91 = load ptr, ptr %90, align 8, !tbaa !50
  %92 = icmp ne ptr %91, null
  br i1 %92, label %93, label %103

93:                                               ; preds = %87
  %94 = load ptr, ptr %6, align 8, !tbaa !3
  %95 = getelementptr inbounds nuw %struct.hwloc_topology, ptr %94, i32 0, i32 18
  %96 = getelementptr inbounds nuw %struct.hwloc_binding_hooks, ptr %95, i32 0, i32 14
  %97 = load ptr, ptr %96, align 8, !tbaa !50
  %98 = load ptr, ptr %6, align 8, !tbaa !3
  %99 = load ptr, ptr %7, align 8, !tbaa !8
  %100 = load ptr, ptr %8, align 8, !tbaa !48
  %101 = load i32, ptr %9, align 4, !tbaa !10
  %102 = call i32 %97(ptr noundef %98, ptr noundef %99, ptr noundef %100, i32 noundef %101)
  store i32 %102, ptr %5, align 4
  br label %107

103:                                              ; preds = %87
  br label %104

104:                                              ; preds = %103, %58
  br label %105

105:                                              ; preds = %104, %37
  %106 = call ptr @__errno_location() #8
  store i32 38, ptr %106, align 4, !tbaa !10
  store i32 -1, ptr %5, align 4
  br label %107

107:                                              ; preds = %105, %93, %84, %48, %27, %15
  %108 = load i32, ptr %5, align 4
  ret i32 %108

109:                                              ; preds = %84
  unreachable
}