; Function Attrs: nounwind uwtable
define internal fastcc i32 @hwloc_get_membind_by_nodeset(ptr noundef %0, ptr noundef %1, ptr noundef %2, i32 noundef %3) unnamed_addr #0 {
  %.not = icmp ult i32 %3, 64
  br i1 %.not, label %7, label %5

5:                                                ; preds = %4
  %6 = tail call ptr @__errno_location() #12
  store i32 22, ptr %6, align 4, !tbaa !3
  br label %.thread

7:                                                ; preds = %4
  %8 = and i32 %3, 1
  %.not35 = icmp eq i32 %8, 0
  br i1 %.not35, label %14, label %9

9:                                                ; preds = %7
  %10 = getelementptr inbounds nuw i8, ptr %0, i64 560
  %11 = load ptr, ptr %10, align 8, !tbaa !57
  %.not41 = icmp eq ptr %11, null
  br i1 %.not41, label %35, label %12

12:                                               ; preds = %9
  %13 = tail call i32 %11(ptr noundef nonnull %0, ptr noundef %1, ptr noundef %2, i32 noundef %3) #14
  br label %.thread

14:                                               ; preds = %7
  %15 = and i32 %3, 2
  %.not36 = icmp eq i32 %15, 0
  br i1 %.not36, label %21, label %16

16:                                               ; preds = %14
  %17 = getelementptr inbounds nuw i8, ptr %0, i64 576
  %18 = load ptr, ptr %17, align 8, !tbaa !58
  %.not40 = icmp eq ptr %18, null
  br i1 %.not40, label %35, label %19

19:                                               ; preds = %16
  %20 = tail call i32 %18(ptr noundef nonnull %0, ptr noundef %1, ptr noundef %2, i32 noundef %3) #14
  br label %.thread

21:                                               ; preds = %14
  %22 = getelementptr inbounds nuw i8, ptr %0, i64 560
  %23 = load ptr, ptr %22, align 8, !tbaa !57
  %.not37 = icmp eq ptr %23, null
  br i1 %.not37, label %30, label %24

24:                                               ; preds = %21
  %25 = tail call i32 %23(ptr noundef nonnull %0, ptr noundef %1, ptr noundef %2, i32 noundef %3) #14
  %26 = icmp sgt i32 %25, -1
  br i1 %26, label %.thread, label %27

27:                                               ; preds = %24
  %28 = tail call ptr @__errno_location() #12
  %29 = load i32, ptr %28, align 4, !tbaa !3
  %.not38 = icmp eq i32 %29, 38
  br i1 %.not38, label %30, label %.thread

30:                                               ; preds = %27, %21
  %31 = getelementptr inbounds nuw i8, ptr %0, i64 576
  %32 = load ptr, ptr %31, align 8, !tbaa !58
  %.not39 = icmp eq ptr %32, null
  br i1 %.not39, label %35, label %33

33:                                               ; preds = %30
  %34 = tail call i32 %32(ptr noundef nonnull %0, ptr noundef %1, ptr noundef %2, i32 noundef %3) #14
  br label %.thread

35:                                               ; preds = %16, %30, %9
  %36 = tail call ptr @__errno_location() #12
  store i32 38, ptr %36, align 4, !tbaa !3
  br label %.thread

.thread:                                          ; preds = %27, %24, %35, %33, %19, %12, %5
  %.030 = phi i32 [ -1, %5 ], [ %13, %12 ], [ -1, %35 ], [ %20, %19 ], [ %34, %33 ], [ %25, %24 ], [ %25, %27 ]
  ret i32 %.030
}